target datalayout = "e-m:e-p270:32:32-p271:32:32-p272:64:64-i64:64-i128:128-f80:128-n8:16:32:64-S128"
target triple = "x86_64-pc-linux-gnu"

%struct._VAPictureH264 = type { i32, i32, i32, i32, i32, [4 x i32] }
%struct.AVRational = type { i32, i32 }
%struct.AVChannelLayout = type { i32, i32, %union.anon, ptr }
%union.anon = type { i64 }
%struct.H264Picture = type { ptr, %struct.ThreadFrame, ptr, ptr, ptr, [2 x ptr], [2 x ptr], ptr, ptr, ptr, [2 x ptr], [2 x i32], i32, i32, i32, i32, i32, [2 x [2 x [32 x i32]]], [2 x [2 x i32]], i32, i32, i32, i32, i32, i32, i32, ptr, i32, i32, i32, ptr, i32 }
%struct.ThreadFrame = type { ptr, [2 x ptr], ptr }
%struct.AVFrame = type { [8 x ptr], [8 x i32], ptr, i32, i32, i32, i32, i32, %struct.AVRational, i64, i64, %struct.AVRational, i32, ptr, i32, i32, [8 x ptr], ptr, i32, ptr, i32, i32, i32, i32, i32, i32, i32, i64, ptr, i32, ptr, ptr, i64, i64, i64, i64, ptr, %struct.AVChannelLayout, i64 }
%struct.DPB = type { i32, i32, ptr }

; Function Attrs: nounwind uwtable
define internal void @fill_vaapi_pic(ptr noundef %0, ptr noundef %1, i32 noundef %2) #0 {
  %4 = alloca ptr, align 8
  %5 = alloca ptr, align 8
  %6 = alloca i32, align 4
  store ptr %0, ptr %4, align 8, !tbaa !178
  store ptr %1, ptr %5, align 8, !tbaa !180
  store i32 %2, ptr %6, align 4, !tbaa !13
  %7 = load i32, ptr %6, align 4, !tbaa !13
  %8 = icmp eq i32 %7, 0
  br i1 %8, label %9, label %13

9:                                                ; preds = %3
  %10 = load ptr, ptr %5, align 8, !tbaa !180
  %11 = getelementptr inbounds nuw %struct.H264Picture, ptr %10, i32 0, i32 21
  %12 = load i32, ptr %11, align 4, !tbaa !181
  store i32 %12, ptr %6, align 4, !tbaa !13
  br label %13

13:                                               ; preds = %9, %3
  %14 = load i32, ptr %6, align 4, !tbaa !13
  %15 = and i32 %14, 3
  store i32 %15, ptr %6, align 4, !tbaa !13
  %16 = load ptr, ptr %5, align 8, !tbaa !180
  %17 = getelementptr inbounds nuw %struct.H264Picture, ptr %16, i32 0, i32 0
  %18 = load ptr, ptr %17, align 8, !tbaa !89
  %19 = call i32 @ff_vaapi_get_surface_id(ptr noundef %18)
  %20 = load ptr, ptr %4, align 8, !tbaa !178
  %21 = getelementptr inbounds nuw %struct._VAPictureH264, ptr %20, i32 0, i32 0
  store i32 %19, ptr %21, align 4, !tbaa !182
  %22 = load ptr, ptr %5, align 8, !tbaa !180
  %23 = getelementptr inbounds nuw %struct.H264Picture, ptr %22, i32 0, i32 16
  %24 = load i32, ptr %23, align 8, !tbaa !183
  %25 = icmp ne i32 %24, 0
  br i1 %25, label %26, label %30

26:                                               ; preds = %13
  %27 = load ptr, ptr %5, align 8, !tbaa !180
  %28 = getelementptr inbounds nuw %struct.H264Picture, ptr %27, i32 0, i32 15
  %29 = load i32, ptr %28, align 4, !tbaa !184
  br label %34

30:                                               ; preds = %13
  %31 = load ptr, ptr %5, align 8, !tbaa !180
  %32 = getelementptr inbounds nuw %struct.H264Picture, ptr %31, i32 0, i32 13
  %33 = load i32, ptr %32, align 4, !tbaa !185
  br label %34

34:                                               ; preds = %30, %26
  %35 = phi i32 [ %29, %26 ], [ %33, %30 ]
  %36 = load ptr, ptr %4, align 8, !tbaa !178
  %37 = getelementptr inbounds nuw %struct._VAPictureH264, ptr %36, i32 0, i32 1
  store i32 %35, ptr %37, align 4, !tbaa !186
  %38 = load ptr, ptr %4, align 8, !tbaa !178
  %39 = getelementptr inbounds nuw %struct._VAPictureH264, ptr %38, i32 0, i32 2
  store i32 0, ptr %39, align 4, !tbaa !187
  %40 = load i32, ptr %6, align 4, !tbaa !13
  %41 = icmp ne i32 %40, 3
  br i1 %41, label %42, label %51

42:                                               ; preds = %34
  %43 = load i32, ptr %6, align 4, !tbaa !13
  %44 = and i32 %43, 1
  %45 = icmp ne i32 %44, 0
  %46 = select i1 %45, i32 2, i32 4
  %47 = load ptr, ptr %4, align 8, !tbaa !178
  %48 = getelementptr inbounds nuw %struct._VAPictureH264, ptr %47, i32 0, i32 2
  %49 = load i32, ptr %48, align 4, !tbaa !187
  %50 = or i32 %49, %46
  store i32 %50, ptr %48, align 4, !tbaa !187
  br label %51

51:                                               ; preds = %42, %34
  %52 = load ptr, ptr %5, align 8, !tbaa !180
  %53 = getelementptr inbounds nuw %struct.H264Picture, ptr %52, i32 0, i32 21
  %54 = load i32, ptr %53, align 4, !tbaa !181
  %55 = icmp ne i32 %54, 0
  br i1 %55, label %56, label %66

56:                                               ; preds = %51
  %57 = load ptr, ptr %5, align 8, !tbaa !180
  %58 = getelementptr inbounds nuw %struct.H264Picture, ptr %57, i32 0, i32 16
  %59 = load i32, ptr %58, align 8, !tbaa !183
  %60 = icmp ne i32 %59, 0
  %61 = select i1 %60, i32 16, i32 8
  %62 = load ptr, ptr %4, align 8, !tbaa !178
  %63 = getelementptr inbounds nuw %struct._VAPictureH264, ptr %62, i32 0, i32 2
  %64 = load i32, ptr %63, align 4, !tbaa !187
  %65 = or i32 %64, %61
  store i32 %65, ptr %63, align 4, !tbaa !187
  br label %66

66:                                               ; preds = %56, %51
  %67 = load ptr, ptr %4, align 8, !tbaa !178
  %68 = getelementptr inbounds nuw %struct._VAPictureH264, ptr %67, i32 0, i32 3
  store i32 0, ptr %68, align 4, !tbaa !188
  %69 = load ptr, ptr %5, align 8, !tbaa !180
  %70 = getelementptr inbounds nuw %struct.H264Picture, ptr %69, i32 0, i32 11
  %71 = getelementptr inbounds [2 x i32], ptr %70, i64 0, i64 0
  %72 = load i32, ptr %71, align 8, !tbaa !13
  %73 = icmp ne i32 %72, 2147483647
  br i1 %73, label %74, label %81

74:                                               ; preds = %66
  %75 = load ptr, ptr %5, align 8, !tbaa !180
  %76 = getelementptr inbounds nuw %struct.H264Picture, ptr %75, i32 0, i32 11
  %77 = getelementptr inbounds [2 x i32], ptr %76, i64 0, i64 0
  %78 = load i32, ptr %77, align 8, !tbaa !13
  %79 = load ptr, ptr %4, align 8, !tbaa !178
  %80 = getelementptr inbounds nuw %struct._VAPictureH264, ptr %79, i32 0, i32 3
  store i32 %78, ptr %80, align 4, !tbaa !188
  br label %81

81:                                               ; preds = %74, %66
  %82 = load ptr, ptr %4, align 8, !tbaa !178
  %83 = getelementptr inbounds nuw %struct._VAPictureH264, ptr %82, i32 0, i32 4
  store i32 0, ptr %83, align 4, !tbaa !189
  %84 = load ptr, ptr %5, align 8, !tbaa !180
  %85 = getelementptr inbounds nuw %struct.H264Picture, ptr %84, i32 0, i32 11
  %86 = getelementptr inbounds [2 x i32], ptr %85, i64 0, i64 1
  %87 = load i32, ptr %86, align 4, !tbaa !13
  %88 = icmp ne i32 %87, 2147483647
  br i1 %88, label %89, label %96

89:                                               ; preds = %81
  %90 = load ptr, ptr %5, align 8, !tbaa !180
  %91 = getelementptr inbounds nuw %struct.H264Picture, ptr %90, i32 0, i32 11
  %92 = getelementptr inbounds [2 x i32], ptr %91, i64 0, i64 1
  %93 = load i32, ptr %92, align 4, !tbaa !13
  %94 = load ptr, ptr %4, align 8, !tbaa !178
  %95 = getelementptr inbounds nuw %struct._VAPictureH264, ptr %94, i32 0, i32 4
  store i32 %93, ptr %95, align 4, !tbaa !189
  br label %96

96:                                               ; preds = %89, %81
  ret void
}

; Function Attrs: inlinehint nounwind uwtable
define internal i32 @ff_vaapi_get_surface_id(ptr noundef %0) #3 {
  %2 = alloca ptr, align 8
  store ptr %0, ptr %2, align 8, !tbaa !177
  %3 = load ptr, ptr %2, align 8, !tbaa !177
  %4 = getelementptr inbounds nuw %struct.AVFrame, ptr %3, i32 0, i32 0
  %5 = getelementptr inbounds [8 x ptr], ptr %4, i64 0, i64 3
  %6 = load ptr, ptr %5, align 8, !tbaa !11
  %7 = ptrtoint ptr %6 to i64
  %8 = trunc i64 %7 to i32
  ret i32 %8
}

; Function Attrs: nounwind uwtable
define internal i32 @dpb_add(ptr noundef %0, ptr noundef %1) #0 {
  %3 = alloca i32, align 4
  %4 = alloca ptr, align 8
  %5 = alloca ptr, align 8
  %6 = alloca i32, align 4
  %7 = alloca i32, align 4
  %8 = alloca i32, align 4
  %9 = alloca i32, align 4
  %10 = alloca ptr, align 8
  %11 = alloca i32, align 4
  %12 = alloca %struct._VAPictureH264, align 4
  store ptr %0, ptr %4, align 8, !tbaa !201
  store ptr %1, ptr %5, align 8, !tbaa !180
  call void @llvm.lifetime.start.p0(i64 4, ptr %6) #6
  call void @llvm.lifetime.start.p0(i64 4, ptr %7) #6
  call void @llvm.lifetime.start.p0(i64 4, ptr %8) #6
  store i32 0, ptr %8, align 4, !tbaa !13
  %13 = load ptr, ptr %4, align 8, !tbaa !201
  %14 = getelementptr inbounds nuw %struct.DPB, ptr %13, i32 0, i32 0
  %15 = load i32, ptr %14, align 8, !tbaa !192
  %16 = load ptr, ptr %4, align 8, !tbaa !201
  %17 = getelementptr inbounds nuw %struct.DPB, ptr %16, i32 0, i32 1
  %18 = load i32, ptr %17, align 4, !tbaa !194
  %19 = icmp sge i32 %15, %18
  br i1 %19, label %20, label %21

20:                                               ; preds = %2
  store i32 -1, ptr %3, align 4
  store i32 1, ptr %9, align 4
  br label %130

21:                                               ; preds = %2
  %22 = load ptr, ptr %5, align 8, !tbaa !180
  %23 = getelementptr inbounds nuw %struct.H264Picture, ptr %22, i32 0, i32 16
  %24 = load i32, ptr %23, align 8, !tbaa !183
  %25 = icmp ne i32 %24, 0
  br i1 %25, label %26, label %30

26:                                               ; preds = %21
  %27 = load ptr, ptr %5, align 8, !tbaa !180
  %28 = getelementptr inbounds nuw %struct.H264Picture, ptr %27, i32 0, i32 15
  %29 = load i32, ptr %28, align 4, !tbaa !184
  br label %34

30:                                               ; preds = %21
  %31 = load ptr, ptr %5, align 8, !tbaa !180
  %32 = getelementptr inbounds nuw %struct.H264Picture, ptr %31, i32 0, i32 13
  %33 = load i32, ptr %32, align 4, !tbaa !185
  br label %34

34:                                               ; preds = %30, %26
  %35 = phi i32 [ %29, %26 ], [ %33, %30 ]
  store i32 %35, ptr %7, align 4, !tbaa !13
  store i32 0, ptr %6, align 4, !tbaa !13
  br label %36

36:                                               ; preds = %112, %34
  %37 = load i32, ptr %6, align 4, !tbaa !13
  %38 = load ptr, ptr %4, align 8, !tbaa !201
  %39 = getelementptr inbounds nuw %struct.DPB, ptr %38, i32 0, i32 0
  %40 = load i32, ptr %39, align 8, !tbaa !192
  %41 = icmp slt i32 %37, %40
  br i1 %41, label %42, label %115

42:                                               ; preds = %36
  call void @llvm.lifetime.start.p0(i64 8, ptr %10) #6
  %43 = load ptr, ptr %4, align 8, !tbaa !201
  %44 = getelementptr inbounds nuw %struct.DPB, ptr %43, i32 0, i32 2
  %45 = load ptr, ptr %44, align 8, !tbaa !195
  %46 = load i32, ptr %6, align 4, !tbaa !13
  %47 = sext i32 %46 to i64
  %48 = getelementptr inbounds %struct._VAPictureH264, ptr %45, i64 %47
  store ptr %48, ptr %10, align 8, !tbaa !178
  call void @llvm.lifetime.start.p0(i64 4, ptr %11) #6
  %49 = load ptr, ptr %10, align 8, !tbaa !178
  %50 = getelementptr inbounds nuw %struct._VAPictureH264, ptr %49, i32 0, i32 2
  %51 = load i32, ptr %50, align 4, !tbaa !187
  %52 = and i32 %51, 16
  %53 = icmp ne i32 %52, 0
  %54 = xor i1 %53, true
  %55 = xor i1 %54, true
  %56 = zext i1 %55 to i32
  store i32 %56, ptr %11, align 4, !tbaa !13
  %57 = load ptr, ptr %10, align 8, !tbaa !178
  %58 = getelementptr inbounds nuw %struct._VAPictureH264, ptr %57, i32 0, i32 0
  %59 = load i32, ptr %58, align 4, !tbaa !182
  %60 = load ptr, ptr %5, align 8, !tbaa !180
  %61 = getelementptr inbounds nuw %struct.H264Picture, ptr %60, i32 0, i32 0
  %62 = load ptr, ptr %61, align 8, !tbaa !89
  %63 = call i32 @ff_vaapi_get_surface_id(ptr noundef %62)
  %64 = icmp eq i32 %59, %63
  br i1 %64, label %65, label %111

65:                                               ; preds = %42
  %66 = load i32, ptr %11, align 4, !tbaa !13
  %67 = load ptr, ptr %5, align 8, !tbaa !180
  %68 = getelementptr inbounds nuw %struct.H264Picture, ptr %67, i32 0, i32 16
  %69 = load i32, ptr %68, align 8, !tbaa !183
  %70 = icmp eq i32 %66, %69
  br i1 %70, label %71, label %111

71:                                               ; preds = %65
  %72 = load ptr, ptr %10, align 8, !tbaa !178
  %73 = getelementptr inbounds nuw %struct._VAPictureH264, ptr %72, i32 0, i32 1
  %74 = load i32, ptr %73, align 4, !tbaa !186
  %75 = load i32, ptr %7, align 4, !tbaa !13
  %76 = icmp eq i32 %74, %75
  br i1 %76, label %77, label %111

77:                                               ; preds = %71
  call void @llvm.lifetime.start.p0(i64 36, ptr %12) #6
  %78 = load ptr, ptr %5, align 8, !tbaa !180
  call void @fill_vaapi_pic(ptr noundef %12, ptr noundef %78, i32 noundef 0)
  %79 = getelementptr inbounds nuw %struct._VAPictureH264, ptr %12, i32 0, i32 2
  %80 = load i32, ptr %79, align 4, !tbaa !187
  %81 = load ptr, ptr %10, align 8, !tbaa !178
  %82 = getelementptr inbounds nuw %struct._VAPictureH264, ptr %81, i32 0, i32 2
  %83 = load i32, ptr %82, align 4, !tbaa !187
  %84 = xor i32 %80, %83
  %85 = and i32 %84, 6
  %86 = icmp ne i32 %85, 0
  br i1 %86, label %87, label %110

87:                                               ; preds = %77
  %88 = getelementptr inbounds nuw %struct._VAPictureH264, ptr %12, i32 0, i32 2
  %89 = load i32, ptr %88, align 4, !tbaa !187
  %90 = and i32 %89, 6
  %91 = load ptr, ptr %10, align 8, !tbaa !178
  %92 = getelementptr inbounds nuw %struct._VAPictureH264, ptr %91, i32 0, i32 2
  %93 = load i32, ptr %92, align 4, !tbaa !187
  %94 = or i32 %93, %90
  store i32 %94, ptr %92, align 4, !tbaa !187
  %95 = getelementptr inbounds nuw %struct._VAPictureH264, ptr %12, i32 0, i32 2
  %96 = load i32, ptr %95, align 4, !tbaa !187
  %97 = and i32 %96, 2
  %98 = icmp ne i32 %97, 0
  br i1 %98, label %99, label %104

99:                                               ; preds = %87
  %100 = getelementptr inbounds nuw %struct._VAPictureH264, ptr %12, i32 0, i32 3
  %101 = load i32, ptr %100, align 4, !tbaa !188
  %102 = load ptr, ptr %10, align 8, !tbaa !178
  %103 = getelementptr inbounds nuw %struct._VAPictureH264, ptr %102, i32 0, i32 3
  store i32 %101, ptr %103, align 4, !tbaa !188
  br label %109

104:                                              ; preds = %87
  %105 = getelementptr inbounds nuw %struct._VAPictureH264, ptr %12, i32 0, i32 4
  %106 = load i32, ptr %105, align 4, !tbaa !189
  %107 = load ptr, ptr %10, align 8, !tbaa !178
  %108 = getelementptr inbounds nuw %struct._VAPictureH264, ptr %107, i32 0, i32 4
  store i32 %106, ptr %108, align 4, !tbaa !189
  br label %109

109:                                              ; preds = %104, %99
  store i32 1, ptr %8, align 4, !tbaa !13
  br label %110

110:                                              ; preds = %109, %77
  call void @llvm.lifetime.end.p0(i64 36, ptr %12) #6
  br label %111

111:                                              ; preds = %110, %71, %65, %42
  call void @llvm.lifetime.end.p0(i64 4, ptr %11) #6
  call void @llvm.lifetime.end.p0(i64 8, ptr %10) #6
  br label %112

112:                                              ; preds = %111
  %113 = load i32, ptr %6, align 4, !tbaa !13
  %114 = add nsw i32 %113, 1
  store i32 %114, ptr %6, align 4, !tbaa !13
  br label %36, !llvm.loop !203

115:                                              ; preds = %36
  %116 = load i32, ptr %8, align 4, !tbaa !13
  %117 = icmp ne i32 %116, 0
  br i1 %117, label %118, label %119

118:                                              ; preds = %115
  store i32 0, ptr %3, align 4
  store i32 1, ptr %9, align 4
  br label %130

119:                                              ; preds = %115
  %120 = load ptr, ptr %4, align 8, !tbaa !201
  %121 = getelementptr inbounds nuw %struct.DPB, ptr %120, i32 0, i32 2
  %122 = load ptr, ptr %121, align 8, !tbaa !195
  %123 = load ptr, ptr %4, align 8, !tbaa !201
  %124 = getelementptr inbounds nuw %struct.DPB, ptr %123, i32 0, i32 0
  %125 = load i32, ptr %124, align 8, !tbaa !192
  %126 = add nsw i32 %125, 1
  store i32 %126, ptr %124, align 8, !tbaa !192
  %127 = sext i32 %125 to i64
  %128 = getelementptr inbounds %struct._VAPictureH264, ptr %122, i64 %127
  %129 = load ptr, ptr %5, align 8, !tbaa !180
  call void @fill_vaapi_pic(ptr noundef %128, ptr noundef %129, i32 noundef 0)
  store i32 0, ptr %3, align 4
  store i32 1, ptr %9, align 4
  br label %130

130:                                              ; preds = %119, %118, %20
  call void @llvm.lifetime.end.p0(i64 4, ptr %8) #6
  call void @llvm.lifetime.end.p0(i64 4, ptr %7) #6
  call void @llvm.lifetime.end.p0(i64 4, ptr %6) #6
  %131 = load i32, ptr %3, align 4
  ret i32 %131
}