; Function Attrs: nofree norecurse nosync nounwind memory(readwrite, inaccessiblemem: none) uwtable
define internal fastcc range(i32 -1, 1) i32 @dpb_add(ptr noundef nonnull captures(none) %0, ptr noundef nonnull readonly captures(none) %1) unnamed_addr #5 {
  %3 = load i32, ptr %0, align 8, !tbaa !124
  %4 = getelementptr inbounds nuw i8, ptr %0, i64 4
  %5 = load i32, ptr %4, align 4, !tbaa !127
  %.not = icmp slt i32 %3, %5
  br i1 %.not, label %6, label %70

6:                                                ; preds = %2
  %7 = getelementptr inbounds nuw i8, ptr %1, i64 160
  %8 = load i32, ptr %7, align 8, !tbaa !121
  %.not29 = icmp eq i32 %8, 0
  %.in.v = select i1 %.not29, i64 148, i64 156
  %.in = getelementptr inbounds nuw i8, ptr %1, i64 %.in.v
  %9 = load i32, ptr %.in, align 4, !tbaa !104
  %10 = icmp sgt i32 %3, 0
  br i1 %10, label %.lr.ph, label %._crit_edge.thread

.lr.ph:                                           ; preds = %6
  %11 = getelementptr inbounds nuw i8, ptr %0, i64 8
  %12 = load ptr, ptr %11, align 8, !tbaa !128
  %13 = load ptr, ptr %1, align 8, !tbaa !79
  %14 = getelementptr i8, ptr %13, i64 24
  %.val = load ptr, ptr %14, align 8, !tbaa !80
  %15 = ptrtoint ptr %.val to i64
  %16 = trunc i64 %15 to i32
  %17 = getelementptr inbounds nuw i8, ptr %1, i64 700
  %18 = getelementptr inbounds nuw i8, ptr %1, i64 136
  %19 = getelementptr inbounds nuw i8, ptr %1, i64 140
  %wide.trip.count = zext nneg i32 %3 to i64
  br label %20

20:                                               ; preds = %.lr.ph, %43
  %indvars.iv = phi i64 [ 0, %.lr.ph ], [ %indvars.iv.next, %43 ]
  %.02747 = phi i32 [ 0, %.lr.ph ], [ %.1, %43 ]
  %21 = getelementptr inbounds nuw %struct._VAPictureH264, ptr %12, i64 %indvars.iv
  %22 = getelementptr inbounds nuw i8, ptr %21, i64 8
  %23 = load i32, ptr %22, align 4, !tbaa !123
  %24 = load i32, ptr %21, align 4, !tbaa !119
  %25 = icmp eq i32 %24, %16
  br i1 %25, label %26, label %43

26:                                               ; preds = %20
  %27 = lshr i32 %23, 4
  %.lobit = and i32 %27, 1
  %28 = icmp eq i32 %.lobit, %8
  br i1 %28, label %29, label %43

29:                                               ; preds = %26
  %30 = getelementptr inbounds nuw i8, ptr %21, i64 4
  %31 = load i32, ptr %30, align 4, !tbaa !122
  %32 = icmp eq i32 %31, %9
  br i1 %32, label %33, label %43

33:                                               ; preds = %29
  %34 = load i32, ptr %17, align 4, !tbaa !118
  %35 = and i32 %34, 3
  %.not27.i = icmp eq i32 %35, 3
  %36 = and i32 %34, 1
  %.not28.i = icmp eq i32 %36, 0
  %37 = select i1 %.not28.i, i32 4, i32 2
  %storemerge.i = select i1 %.not27.i, i32 0, i32 %37
  %.masked = and i32 %23, 6
  %.not31 = icmp eq i32 %storemerge.i, %.masked
  br i1 %.not31, label %43, label %.sink.split

.sink.split:                                      ; preds = %33
  %38 = load i32, ptr %19, align 4, !tbaa !104
  %.not32.i = icmp eq i32 %38, 2147483647
  %spec.store.select33.i = select i1 %.not32.i, i32 0, i32 %38
  %39 = load i32, ptr %18, align 8, !tbaa !104
  %.not31.i = icmp eq i32 %39, 2147483647
  %spec.store.select.i = select i1 %.not31.i, i32 0, i32 %39
  %40 = or i32 %storemerge.i, %23
  store i32 %40, ptr %22, align 4, !tbaa !123
  %41 = and i32 %storemerge.i, 2
  %.not32 = icmp eq i32 %41, 0
  %. = select i1 %.not32, i64 16, i64 12
  %spec.store.select33.i.spec.store.select.i = select i1 %.not32, i32 %spec.store.select33.i, i32 %spec.store.select.i
  %42 = getelementptr inbounds nuw i8, ptr %21, i64 %.
  store i32 %spec.store.select33.i.spec.store.select.i, ptr %42, align 4, !tbaa !104
  br label %43

43:                                               ; preds = %.sink.split, %33, %29, %26, %20
  %.1 = phi i32 [ %.02747, %29 ], [ %.02747, %26 ], [ %.02747, %20 ], [ %.02747, %33 ], [ 1, %.sink.split ]
  %indvars.iv.next = add nuw nsw i64 %indvars.iv, 1
  %exitcond.not = icmp eq i64 %indvars.iv.next, %wide.trip.count
  br i1 %exitcond.not, label %._crit_edge, label %20, !llvm.loop !165

._crit_edge:                                      ; preds = %43
  %44 = icmp eq i32 %.1, 0
  br i1 %44, label %._crit_edge.thread, label %70

._crit_edge.thread:                               ; preds = %6, %._crit_edge
  %45 = getelementptr inbounds nuw i8, ptr %0, i64 8
  %46 = load ptr, ptr %45, align 8, !tbaa !128
  %47 = add nsw i32 %3, 1
  store i32 %47, ptr %0, align 8, !tbaa !124
  %48 = sext i32 %3 to i64
  %49 = getelementptr inbounds %struct._VAPictureH264, ptr %46, i64 %48
  %50 = getelementptr inbounds nuw i8, ptr %1, i64 700
  %51 = load i32, ptr %50, align 4, !tbaa !118
  %52 = and i32 %51, 3
  %53 = load ptr, ptr %1, align 8, !tbaa !79
  %54 = getelementptr i8, ptr %53, i64 24
  %.val.i33 = load ptr, ptr %54, align 8, !tbaa !80
  %55 = ptrtoint ptr %.val.i33 to i64
  %56 = trunc i64 %55 to i32
  store i32 %56, ptr %49, align 4, !tbaa !119
  %57 = load i32, ptr %.in, align 4, !tbaa !104
  %58 = getelementptr inbounds nuw i8, ptr %49, i64 4
  store i32 %57, ptr %58, align 4, !tbaa !122
  %.not27.i37 = icmp eq i32 %52, 3
  %59 = and i32 %51, 1
  %.not28.i38 = icmp eq i32 %59, 0
  %60 = select i1 %.not28.i38, i32 4, i32 2
  %storemerge.i39 = select i1 %.not27.i37, i32 0, i32 %60
  %.not29.i40 = icmp eq i32 %51, 0
  %61 = select i1 %.not29, i32 8, i32 16
  %62 = select i1 %.not29.i40, i32 0, i32 %61
  %storemerge34.i41 = or disjoint i32 %storemerge.i39, %62
  %63 = getelementptr inbounds nuw i8, ptr %49, i64 8
  store i32 %storemerge34.i41, ptr %63, align 4, !tbaa !123
  %64 = getelementptr inbounds nuw i8, ptr %49, i64 12
  store i32 0, ptr %64, align 4, !tbaa !130
  %65 = getelementptr inbounds nuw i8, ptr %1, i64 136
  %66 = load i32, ptr %65, align 8, !tbaa !104
  %.not31.i42 = icmp eq i32 %66, 2147483647
  %spec.store.select.i43 = select i1 %.not31.i42, i32 0, i32 %66
  store i32 %spec.store.select.i43, ptr %64, align 4
  %67 = getelementptr inbounds nuw i8, ptr %49, i64 16
  store i32 0, ptr %67, align 4, !tbaa !131
  %68 = getelementptr inbounds nuw i8, ptr %1, i64 140
  %69 = load i32, ptr %68, align 4, !tbaa !104
  %.not32.i44 = icmp eq i32 %69, 2147483647
  %spec.store.select33.i45 = select i1 %.not32.i44, i32 0, i32 %69
  store i32 %spec.store.select33.i45, ptr %67, align 4
  br label %70

70:                                               ; preds = %._crit_edge, %2, %._crit_edge.thread
  %.0 = phi i32 [ 0, %._crit_edge.thread ], [ -1, %2 ], [ 0, %._crit_edge ]
  ret i32 %.0
}